; Function Attrs: mustprogress nounwind uwtable
define internal fastcc noundef zeroext i1 @"_ZZN4llvm11GEPOperator24accumulateConstantOffsetEPNS_4TypeENS_8ArrayRefIPKNS_5ValueEEERKNS_10DataLayoutERNS_5APIntENS_12function_refIFbRS4_SC_EEEENK3$_0clESB_m"(ptr nocapture noundef nonnull readonly align 8 dereferenceable(16) %0, ptr noundef nonnull %1, i64 noundef %2) unnamed_addr #0 align 2 {
  %4 = alloca %"class.llvm::APInt", align 8
  %5 = alloca %"class.llvm::APInt", align 8
  %6 = alloca %"class.llvm::APInt", align 8
  %7 = alloca i8, align 1
  %8 = alloca %"class.llvm::APInt", align 8
  %9 = alloca %"class.llvm::APInt", align 8
  %10 = load ptr, ptr %0, align 8
  %11 = getelementptr inbounds nuw i8, ptr %10, i64 8
  %12 = load i32, ptr %11, align 8
  call void @_ZNK4llvm5APInt11sextOrTruncEj(ptr dead_on_unwind nonnull writable sret(%"class.llvm::APInt") align 8 %4, ptr noundef nonnull align 8 dereferenceable(12) %1, i32 noundef %12) #9
  %13 = getelementptr inbounds nuw i8, ptr %1, i64 8
  %14 = load i32, ptr %13, align 8
  %15 = icmp ult i32 %14, 65
  br i1 %15, label %_ZN4llvm5APIntD2Ev.exit, label %16

16:                                               ; preds = %3
  %17 = load ptr, ptr %1, align 8
  %18 = icmp eq ptr %17, null
  br i1 %18, label %_ZN4llvm5APIntD2Ev.exit, label %19

19:                                               ; preds = %16
  call void @_ZdaPv(ptr noundef nonnull %17) #10
  br label %_ZN4llvm5APIntD2Ev.exit

_ZN4llvm5APIntD2Ev.exit:                          ; preds = %19, %16, %3
  %20 = load i64, ptr %4, align 8
  store i64 %20, ptr %1, align 8
  %21 = getelementptr inbounds nuw i8, ptr %4, i64 8
  %22 = load i32, ptr %21, align 8
  store i32 %22, ptr %13, align 8
  store i32 0, ptr %21, align 8
  %23 = load ptr, ptr %0, align 8
  %24 = getelementptr inbounds nuw i8, ptr %23, i64 8
  %25 = load i32, ptr %24, align 8
  %26 = getelementptr inbounds nuw i8, ptr %5, i64 8
  store i32 %25, ptr %26, align 8
  %27 = icmp ult i32 %25, 65
  br i1 %27, label %28, label %36

28:                                               ; preds = %_ZN4llvm5APIntD2Ev.exit
  %29 = add nuw nsw i32 %25, 63
  %30 = and i32 %29, 63
  %31 = xor i32 %30, 63
  %32 = zext nneg i32 %31 to i64
  %33 = lshr i64 -1, %32
  %34 = icmp eq i32 %25, 0
  %spec.store.select.i.i = select i1 %34, i64 0, i64 %33
  %35 = and i64 %spec.store.select.i.i, %2
  store i64 %35, ptr %5, align 8
  br label %_ZN4llvm5APIntC2Ejmbb.exit

36:                                               ; preds = %_ZN4llvm5APIntD2Ev.exit
  call void @_ZN4llvm5APInt12initSlowCaseEmb(ptr noundef nonnull align 8 dereferenceable(12) %5, i64 noundef %2, i1 noundef zeroext false) #9
  br label %_ZN4llvm5APIntC2Ejmbb.exit

_ZN4llvm5APIntC2Ejmbb.exit:                       ; preds = %28, %36
  %37 = getelementptr inbounds nuw i8, ptr %0, i64 8
  %38 = load ptr, ptr %37, align 8
  %39 = load i8, ptr %38, align 1
  %40 = trunc i8 %39 to i1
  br i1 %40, label %51, label %41

41:                                               ; preds = %_ZN4llvm5APIntC2Ejmbb.exit
  call void @_ZNK4llvm5APIntmlERKS0_(ptr dead_on_unwind nonnull writable sret(%"class.llvm::APInt") align 8 %6, ptr noundef nonnull align 8 dereferenceable(12) %1, ptr noundef nonnull align 8 dereferenceable(12) %5) #9
  %42 = load ptr, ptr %0, align 8
  %43 = call noundef nonnull align 8 dereferenceable(12) ptr @_ZN4llvm5APIntpLERKS0_(ptr noundef nonnull align 8 dereferenceable(12) %42, ptr noundef nonnull align 8 dereferenceable(12) %6) #9
  %44 = getelementptr inbounds nuw i8, ptr %6, i64 8
  %45 = load i32, ptr %44, align 8
  %46 = icmp ugt i32 %45, 64
  br i1 %46, label %47, label %_ZN4llvm5APIntD2Ev.exit4

47:                                               ; preds = %41
  %48 = load ptr, ptr %6, align 8
  %49 = icmp eq ptr %48, null
  br i1 %49, label %_ZN4llvm5APIntD2Ev.exit4, label %50

50:                                               ; preds = %47
  call void @_ZdaPv(ptr noundef nonnull %48) #10
  br label %_ZN4llvm5APIntD2Ev.exit4

51:                                               ; preds = %_ZN4llvm5APIntC2Ejmbb.exit
  store i8 0, ptr %7, align 1
  call void @_ZNK4llvm5APInt7smul_ovERKS0_Rb(ptr dead_on_unwind nonnull writable sret(%"class.llvm::APInt") align 8 %8, ptr noundef nonnull align 8 dereferenceable(12) %1, ptr noundef nonnull align 8 dereferenceable(12) %5, ptr noundef nonnull align 1 dereferenceable(1) %7) #9
  %52 = load i8, ptr %7, align 1
  %53 = trunc i8 %52 to i1
  br i1 %53, label %.critedge, label %54

54:                                               ; preds = %51
  %55 = load ptr, ptr %0, align 8
  call void @_ZNK4llvm5APInt7sadd_ovERKS0_Rb(ptr dead_on_unwind nonnull writable sret(%"class.llvm::APInt") align 8 %9, ptr noundef nonnull align 8 dereferenceable(12) %55, ptr noundef nonnull align 8 dereferenceable(12) %8, ptr noundef nonnull align 1 dereferenceable(1) %7) #9
  %56 = load ptr, ptr %0, align 8
  %57 = getelementptr inbounds nuw i8, ptr %56, i64 8
  %58 = load i32, ptr %57, align 8
  %59 = icmp ult i32 %58, 65
  br i1 %59, label %_ZN4llvm5APIntD2Ev.exit6, label %60

60:                                               ; preds = %54
  %61 = load ptr, ptr %56, align 8
  %62 = icmp eq ptr %61, null
  br i1 %62, label %_ZN4llvm5APIntD2Ev.exit6, label %63

63:                                               ; preds = %60
  call void @_ZdaPv(ptr noundef nonnull %61) #10
  br label %_ZN4llvm5APIntD2Ev.exit6

_ZN4llvm5APIntD2Ev.exit6:                         ; preds = %63, %60, %54
  %64 = load i64, ptr %9, align 8
  store i64 %64, ptr %56, align 8
  %65 = getelementptr inbounds nuw i8, ptr %9, i64 8
  %66 = load i32, ptr %65, align 8
  store i32 %66, ptr %57, align 8
  store i32 0, ptr %65, align 8
  %67 = load i8, ptr %7, align 1
  %68 = trunc i8 %67 to i1
  %69 = getelementptr inbounds nuw i8, ptr %8, i64 8
  %70 = load i32, ptr %69, align 8
  %71 = icmp ugt i32 %70, 64
  br i1 %71, label %72, label %_ZN4llvm5APIntD2Ev.exit7

72:                                               ; preds = %_ZN4llvm5APIntD2Ev.exit6
  %73 = load ptr, ptr %8, align 8
  %74 = icmp eq ptr %73, null
  br i1 %74, label %_ZN4llvm5APIntD2Ev.exit7, label %75

75:                                               ; preds = %72
  call void @_ZdaPv(ptr noundef nonnull %73) #10
  br label %_ZN4llvm5APIntD2Ev.exit7

_ZN4llvm5APIntD2Ev.exit7:                         ; preds = %_ZN4llvm5APIntD2Ev.exit6, %72, %75
  br i1 %68, label %_ZN4llvm5APIntD2Ev.exit8, label %_ZN4llvm5APIntD2Ev.exit4

_ZN4llvm5APIntD2Ev.exit4:                         ; preds = %50, %47, %41, %_ZN4llvm5APIntD2Ev.exit7
  br label %_ZN4llvm5APIntD2Ev.exit8

.critedge:                                        ; preds = %51
  %76 = getelementptr inbounds nuw i8, ptr %8, i64 8
  %77 = load i32, ptr %76, align 8
  %78 = icmp ugt i32 %77, 64
  br i1 %78, label %79, label %_ZN4llvm5APIntD2Ev.exit8

79:                                               ; preds = %.critedge
  %80 = load ptr, ptr %8, align 8
  %81 = icmp eq ptr %80, null
  br i1 %81, label %_ZN4llvm5APIntD2Ev.exit8, label %82

82:                                               ; preds = %79
  call void @_ZdaPv(ptr noundef nonnull %80) #10
  br label %_ZN4llvm5APIntD2Ev.exit8

_ZN4llvm5APIntD2Ev.exit8:                         ; preds = %82, %79, %.critedge, %_ZN4llvm5APIntD2Ev.exit7, %_ZN4llvm5APIntD2Ev.exit4
  %.1 = phi i1 [ true, %_ZN4llvm5APIntD2Ev.exit4 ], [ false, %_ZN4llvm5APIntD2Ev.exit7 ], [ false, %.critedge ], [ false, %79 ], [ false, %82 ]
  %83 = load i32, ptr %26, align 8
  %84 = icmp ugt i32 %83, 64
  br i1 %84, label %85, label %_ZN4llvm5APIntD2Ev.exit9

85:                                               ; preds = %_ZN4llvm5APIntD2Ev.exit8
  %86 = load ptr, ptr %5, align 8
  %87 = icmp eq ptr %86, null
  br i1 %87, label %_ZN4llvm5APIntD2Ev.exit9, label %88

88:                                               ; preds = %85
  call void @_ZdaPv(ptr noundef nonnull %86) #10
  br label %_ZN4llvm5APIntD2Ev.exit9

_ZN4llvm5APIntD2Ev.exit9:                         ; preds = %_ZN4llvm5APIntD2Ev.exit8, %85, %88
  ret i1 %.1
}